; Function Attrs: nounwind uwtable
define noalias nonnull ptr @l_Lake_mkHoleFrom(ptr noundef %0) local_unnamed_addr #0 {
  %2 = load ptr, ptr @l_Lake_mkHoleFrom___closed__6, align 8, !tbaa !11
  %3 = tail call ptr @l_Lean_mkAtomFrom(ptr noundef %0, ptr noundef %2, i8 noundef zeroext 0) #5
  tail call void @lean_inc_heartbeat() #5
  %4 = tail call noalias ptr @mi_malloc_small(i64 noundef 24) #5
  %5 = icmp eq ptr %4, null
  br i1 %5, label %6, label %lean_alloc_ctor.exit

6:                                                ; preds = %1
  tail call void @lean_internal_panic_out_of_memory() #6
  unreachable

lean_alloc_ctor.exit:                             ; preds = %1
  %7 = getelementptr inbounds nuw i8, ptr %4, i64 4
  store i32 1, ptr %4, align 4, !tbaa !4
  store i32 16908312, ptr %7, align 4
  %8 = getelementptr inbounds nuw i8, ptr %4, i64 8
  store ptr %3, ptr %8, align 8, !tbaa !11
  %9 = getelementptr inbounds nuw i8, ptr %4, i64 16
  store ptr inttoptr (i64 1 to ptr), ptr %9, align 8, !tbaa !11
  %10 = tail call ptr @lean_array_mk(ptr noundef nonnull %4) #5
  %11 = load ptr, ptr @l_Lake_mkHoleFrom___closed__5, align 8, !tbaa !11
  tail call void @lean_inc_heartbeat() #5
  %12 = tail call noalias ptr @mi_malloc_small(i64 noundef 32) #5
  %13 = icmp eq ptr %12, null
  br i1 %13, label %14, label %lean_alloc_ctor.exit14

14:                                               ; preds = %lean_alloc_ctor.exit
  tail call void @lean_internal_panic_out_of_memory() #6
  unreachable

lean_alloc_ctor.exit14:                           ; preds = %lean_alloc_ctor.exit
  %15 = getelementptr inbounds nuw i8, ptr %12, i64 4
  store i32 1, ptr %12, align 4, !tbaa !4
  store i32 16973856, ptr %15, align 4
  %16 = getelementptr inbounds nuw i8, ptr %12, i64 8
  store ptr inttoptr (i64 5 to ptr), ptr %16, align 8, !tbaa !11
  %17 = getelementptr inbounds nuw i8, ptr %12, i64 16
  store ptr %11, ptr %17, align 8, !tbaa !11
  %18 = getelementptr inbounds nuw i8, ptr %12, i64 24
  store ptr %10, ptr %18, align 8, !tbaa !11
  ret ptr %12
}